target datalayout = "e-m:e-p270:32:32-p271:32:32-p272:64:64-i64:64-i128:128-f80:128-n8:16:32:64-S128"
target triple = "x86_64-pc-linux-gnu"

%struct.quic_conn_st = type { %struct.quic_obj_st, ptr, ptr, ptr, ptr, ptr, ptr, ptr, ptr, %union.bio_addr_st, %struct.quic_thread_assist_st, i64, i16, i32, i32, i64, i32, i64, i32 }
%struct.quic_obj_st = type { %struct.ssl_st, ptr, ptr, ptr, ptr, ptr, i64, i8 }
%struct.ssl_st = type { i32, ptr, ptr, ptr, %struct.CRYPTO_REF_COUNT, ptr, %struct.crypto_ex_data_st }
%struct.CRYPTO_REF_COUNT = type { i32 }
%struct.crypto_ex_data_st = type { ptr, ptr }
%union.bio_addr_st = type { %struct.sockaddr_in6, [84 x i8] }
%struct.sockaddr_in6 = type { i16, i16, i32, %struct.in6_addr, i32 }
%struct.in6_addr = type { %union.anon }
%union.anon = type { [4 x i32] }
%struct.quic_thread_assist_st = type { ptr, ptr, ptr, i32, i32 }

; Function Attrs: nounwind uwtable
define internal i32 @qc_get_effective_incoming_stream_policy(ptr noundef %0) #0 {
  %2 = alloca i32, align 4
  %3 = alloca ptr, align 8
  store ptr %0, ptr %3, align 8, !tbaa !8
  %4 = load ptr, ptr %3, align 8, !tbaa !8
  %5 = getelementptr inbounds nuw %struct.quic_conn_st, ptr %4, i32 0, i32 16
  %6 = load i32, ptr %5, align 8, !tbaa !117
  switch i32 %6, label %27 [
    i32 0, label %7
  ]

7:                                                ; preds = %1
  %8 = load ptr, ptr %3, align 8, !tbaa !8
  %9 = getelementptr inbounds nuw %struct.quic_conn_st, ptr %8, i32 0, i32 8
  %10 = load ptr, ptr %9, align 8, !tbaa !155
  %11 = icmp eq ptr %10, null
  br i1 %11, label %12, label %20

12:                                               ; preds = %7
  %13 = load ptr, ptr %3, align 8, !tbaa !8
  %14 = getelementptr inbounds nuw %struct.quic_conn_st, ptr %13, i32 0, i32 12
  %15 = load i16, ptr %14, align 8
  %16 = lshr i16 %15, 4
  %17 = and i16 %16, 1
  %18 = zext i16 %17 to i32
  %19 = icmp ne i32 %18, 0
  br i1 %19, label %20, label %25

20:                                               ; preds = %12, %7
  %21 = load ptr, ptr %3, align 8, !tbaa !8
  %22 = getelementptr inbounds nuw %struct.quic_conn_st, ptr %21, i32 0, i32 13
  %23 = load i32, ptr %22, align 4, !tbaa !111
  %24 = icmp eq i32 %23, 0
  br i1 %24, label %25, label %26

25:                                               ; preds = %20, %12
  store i32 1, ptr %2, align 4
  br label %31

26:                                               ; preds = %20
  store i32 2, ptr %2, align 4
  br label %31

27:                                               ; preds = %1
  %28 = load ptr, ptr %3, align 8, !tbaa !8
  %29 = getelementptr inbounds nuw %struct.quic_conn_st, ptr %28, i32 0, i32 16
  %30 = load i32, ptr %29, align 8, !tbaa !117
  store i32 %30, ptr %2, align 4
  br label %31

31:                                               ; preds = %27, %26, %25
  %32 = load i32, ptr %2, align 4
  ret i32 %32
}

; Function Attrs: nounwind uwtable
define internal void @qc_update_reject_policy(ptr noundef %0) #0 {
  %2 = alloca ptr, align 8
  %3 = alloca i32, align 4
  %4 = alloca i32, align 4
  store ptr %0, ptr %2, align 8, !tbaa !8
  call void @llvm.lifetime.start.p0(i64 4, ptr %3) #10
  %5 = load ptr, ptr %2, align 8, !tbaa !8
  %6 = call i32 @qc_get_effective_incoming_stream_policy(ptr noundef %5)
  store i32 %6, ptr %3, align 4, !tbaa !122
  call void @llvm.lifetime.start.p0(i64 4, ptr %4) #10
  %7 = load i32, ptr %3, align 4, !tbaa !122
  %8 = icmp eq i32 %7, 2
  %9 = zext i1 %8 to i32
  store i32 %9, ptr %4, align 4, !tbaa !122
  %10 = load ptr, ptr %2, align 8, !tbaa !8
  %11 = getelementptr inbounds nuw %struct.quic_conn_st, ptr %10, i32 0, i32 6
  %12 = load ptr, ptr %11, align 8, !tbaa !106
  %13 = load i32, ptr %4, align 4, !tbaa !122
  %14 = load ptr, ptr %2, align 8, !tbaa !8
  %15 = getelementptr inbounds nuw %struct.quic_conn_st, ptr %14, i32 0, i32 17
  %16 = load i64, ptr %15, align 8, !tbaa !134
  call void @ossl_quic_channel_set_incoming_stream_auto_reject(ptr noundef %12, i32 noundef %13, i64 noundef %16)
  call void @llvm.lifetime.end.p0(i64 4, ptr %4) #10
  call void @llvm.lifetime.end.p0(i64 4, ptr %3) #10
  ret void
}