; Function Attrs: nounwind uwtable
define internal fastcc void @qc_update_reject_policy(ptr noundef readonly captures(none) %0) unnamed_addr #0 {
  %2 = getelementptr inbounds nuw i8, ptr %0, i64 360
  %3 = load i32, ptr %2, align 8, !tbaa !122
  %cond.i = icmp eq i32 %3, 0
  br i1 %cond.i, label %4, label %qc_get_effective_incoming_stream_policy.exit

4:                                                ; preds = %1
  %5 = getelementptr inbounds nuw i8, ptr %0, i64 176
  %6 = load ptr, ptr %5, align 8, !tbaa !124
  %7 = icmp eq ptr %6, null
  br i1 %7, label %8, label %12

8:                                                ; preds = %4
  %9 = getelementptr inbounds nuw i8, ptr %0, i64 336
  %10 = load i16, ptr %9, align 8
  %11 = and i16 %10, 16
  %.not.i = icmp eq i16 %11, 0
  br i1 %.not.i, label %qc_get_effective_incoming_stream_policy.exit, label %12

12:                                               ; preds = %8, %4
  %13 = getelementptr inbounds nuw i8, ptr %0, i64 340
  %14 = load i32, ptr %13, align 4, !tbaa !116
  %15 = icmp eq i32 %14, 0
  %spec.select.i = select i1 %15, i32 1, i32 2
  br label %qc_get_effective_incoming_stream_policy.exit

qc_get_effective_incoming_stream_policy.exit:     ; preds = %1, %8, %12
  %.0.i = phi i32 [ 1, %8 ], [ %3, %1 ], [ %spec.select.i, %12 ]
  %16 = icmp eq i32 %.0.i, 2
  %17 = zext i1 %16 to i32
  %18 = getelementptr inbounds nuw i8, ptr %0, i64 160
  %19 = load ptr, ptr %18, align 8, !tbaa !113
  %20 = getelementptr inbounds nuw i8, ptr %0, i64 368
  %21 = load i64, ptr %20, align 8, !tbaa !125
  tail call void @ossl_quic_channel_set_incoming_stream_auto_reject(ptr noundef %19, i32 noundef %17, i64 noundef %21) #12
  ret void
}